; ModuleID = '38/185.c'
source_filename = "38/185.c"
target datalayout = "e-m:e-p270:32:32-p271:32:32-p272:64:64-i64:64-f80:128-n8:16:32:64-S128"
target triple = "x86_64-pc-linux-gnu"

@.str = private unnamed_addr constant [3 x i8] c"%d\00", align 1
@.str.1 = private unnamed_addr constant [4 x i8] c"%lf\00", align 1
@.str.2 = private unnamed_addr constant [2 x i8] c"\0A\00", align 1
@.str.3 = private unnamed_addr constant [5 x i8] c"%.5f\00", align 1

; Function Attrs: noinline nounwind uwtable
define dso_local i32 @main() #0 {
  %1 = alloca i32, align 4
  %2 = alloca i32, align 4
  %3 = alloca i32, align 4
  %4 = alloca i32, align 4
  %5 = alloca i32, align 4
  %6 = alloca [1000 x double], align 16
  %7 = alloca double*, align 8
  %8 = alloca double, align 8
  store i32 0, i32* %1, align 4
  store double 0.000000e+00, double* %8, align 8
  %9 = call i32 (i8*, ...) @__isoc99_scanf(i8* getelementptr inbounds ([3 x i8], [3 x i8]* @.str, i64 0, i64 0), i32* %2)
  store i32 0, i32* %4, align 4
  br label %10

10:                                               ; preds = %40, %0
  %11 = load i32, i32* %4, align 4
  %12 = load i32, i32* %2, align 4
  %13 = icmp slt i32 %11, %12
  br i1 %13, label %14, label %43

14:                                               ; preds = %10
  %15 = call i32 (i8*, ...) @__isoc99_scanf(i8* getelementptr inbounds ([3 x i8], [3 x i8]* @.str, i64 0, i64 0), i32* %3)
  store i32 0, i32* %5, align 4
  br label %16

16:                                               ; preds = %25, %14
  %17 = load i32, i32* %5, align 4
  %18 = load i32, i32* %3, align 4
  %19 = icmp slt i32 %17, %18
  br i1 %19, label %20, label %28

20:                                               ; preds = %16
  %21 = load i32, i32* %5, align 4
  %22 = sext i32 %21 to i64
  %23 = getelementptr inbounds [1000 x double], [1000 x double]* %6, i64 0, i64 %22
  %24 = call i32 (i8*, ...) @__isoc99_scanf(i8* getelementptr inbounds ([4 x i8], [4 x i8]* @.str.1, i64 0, i64 0), double* %23)
  br label %25

25:                                               ; preds = %20
  %26 = load i32, i32* %5, align 4
  %27 = add nsw i32 %26, 1
  store i32 %27, i32* %5, align 4
  br label %16

28:                                               ; preds = %16
  %29 = getelementptr inbounds [1000 x double], [1000 x double]* %6, i64 0, i64 0
  store double* %29, double** %7, align 8
  %30 = load i32, i32* %4, align 4
  %31 = icmp ne i32 %30, 0
  br i1 %31, label %32, label %34

32:                                               ; preds = %28
  %33 = call i32 (i8*, ...) @printf(i8* getelementptr inbounds ([2 x i8], [2 x i8]* @.str.2, i64 0, i64 0))
  br label %34

34:                                               ; preds = %32, %28
  %35 = load double*, double** %7, align 8
  %36 = load i32, i32* %3, align 4
  %37 = load double, double* %8, align 8
  %38 = call double @fangcha(double* %35, i32 %36, double %37)
  %39 = call i32 (i8*, ...) @printf(i8* getelementptr inbounds ([5 x i8], [5 x i8]* @.str.3, i64 0, i64 0), double %38)
  br label %40

40:                                               ; preds = %34
  %41 = load i32, i32* %4, align 4
  %42 = add nsw i32 %41, 1
  store i32 %42, i32* %4, align 4
  br label %10

43:                                               ; preds = %10
  ret i32 0
}

declare dso_local i32 @__isoc99_scanf(i8*, ...) #1

declare dso_local i32 @printf(i8*, ...) #1

; Function Attrs: noinline nounwind uwtable
define dso_local double @fangcha(double* %0, i32 %1, double %2) #0 {
  %4 = alloca double*, align 8
  %5 = alloca i32, align 4
  %6 = alloca double, align 8
  %7 = alloca double, align 8
  %8 = alloca double, align 8
  %9 = alloca i32, align 4
  store double* %0, double** %4, align 8
  store i32 %1, i32* %5, align 4
  store double %2, double* %6, align 8
  store double 0.000000e+00, double* %8, align 8
  store i32 0, i32* %9, align 4
  br label %10

10:                                               ; preds = %22, %3
  %11 = load i32, i32* %9, align 4
  %12 = load i32, i32* %5, align 4
  %13 = icmp slt i32 %11, %12
  br i1 %13, label %14, label %25

14:                                               ; preds = %10
  %15 = load double*, double** %4, align 8
  %16 = load i32, i32* %9, align 4
  %17 = sext i32 %16 to i64
  %18 = getelementptr inbounds double, double* %15, i64 %17
  %19 = load double, double* %18, align 8
  %20 = load double, double* %8, align 8
  %21 = fadd double %20, %19
  store double %21, double* %8, align 8
  br label %22

22:                                               ; preds = %14
  %23 = load i32, i32* %9, align 4
  %24 = add nsw i32 %23, 1
  store i32 %24, i32* %9, align 4
  br label %10

25:                                               ; preds = %10
  %26 = load double, double* %8, align 8
  %27 = load i32, i32* %5, align 4
  %28 = sitofp i32 %27 to double
  %29 = fdiv double %26, %28
  store double %29, double* %7, align 8
  store double 0.000000e+00, double* %8, align 8
  store i32 0, i32* %9, align 4
  br label %30

30:                                               ; preds = %52, %25
  %31 = load i32, i32* %9, align 4
  %32 = load i32, i32* %5, align 4
  %33 = icmp slt i32 %31, %32
  br i1 %33, label %34, label %55

34:                                               ; preds = %30
  %35 = load double*, double** %4, align 8
  %36 = load i32, i32* %9, align 4
  %37 = sext i32 %36 to i64
  %38 = getelementptr inbounds double, double* %35, i64 %37
  %39 = load double, double* %38, align 8
  %40 = load double, double* %7, align 8
  %41 = fsub double %39, %40
  %42 = load double*, double** %4, align 8
  %43 = load i32, i32* %9, align 4
  %44 = sext i32 %43 to i64
  %45 = getelementptr inbounds double, double* %42, i64 %44
  %46 = load double, double* %45, align 8
  %47 = load double, double* %7, align 8
  %48 = fsub double %46, %47
  %49 = fmul double %41, %48
  %50 = load double, double* %8, align 8
  %51 = fadd double %50, %49
  store double %51, double* %8, align 8
  br label %52

52:                                               ; preds = %34
  %53 = load i32, i32* %9, align 4
  %54 = add nsw i32 %53, 1
  store i32 %54, i32* %9, align 4
  br label %30

55:                                               ; preds = %30
  %56 = load double, double* %8, align 8
  %57 = load i32, i32* %5, align 4
  %58 = sitofp i32 %57 to double
  %59 = fdiv double %56, %58
  %60 = call double @sqrt(double %59) #3
  store double %60, double* %6, align 8
  %61 = load double, double* %6, align 8
  ret double %61
}

; Function Attrs: nounwind
declare dso_local double @sqrt(double) #2


!llvm.module.flags = !{!0}
!llvm.ident = !{!1}

!0 = !{i32 1, !"wchar_size", i32 4}
!1 = !{!"clang version 10.0.0-4ubuntu1 "}
